; Function Attrs: nounwind uwtable
define void @pmix_psensor_heartbeat_recv_beats(ptr noundef %0, ptr readnone captures(none) %1, ptr readnone captures(none) %2, ptr readnone captures(none) %3) #0 {
  %5 = load i64, ptr getelementptr inbounds nuw (i8, ptr @pmix_psensor_beat_t_class, i64 56), align 8, !tbaa !52
  %6 = tail call noalias noundef ptr @malloc(i64 noundef %5) #15
  %7 = load i32, ptr @pmix_class_init_epoch, align 4, !tbaa !54
  %8 = load i32, ptr getelementptr inbounds nuw (i8, ptr @pmix_psensor_beat_t_class, i64 32), align 8, !tbaa !55
  %.not.i = icmp eq i32 %7, %8
  br i1 %.not.i, label %10, label %9

9:                                                ; preds = %4
  tail call void @pmix_class_initialize(ptr noundef nonnull @pmix_psensor_beat_t_class) #13
  br label %10

10:                                               ; preds = %9, %4
  %.not22.i = icmp eq ptr %6, null
  br i1 %.not22.i, label %pmix_obj_new_tma.exit, label %11

11:                                               ; preds = %10
  %12 = tail call i32 @pthread_mutex_init(ptr noundef nonnull %6, ptr noundef null) #13
  %13 = getelementptr inbounds nuw i8, ptr %6, i64 40
  store ptr @pmix_psensor_beat_t_class, ptr %13, align 8, !tbaa !56
  %14 = getelementptr inbounds nuw i8, ptr %6, i64 48
  store i32 1, ptr %14, align 8, !tbaa !57
  %15 = getelementptr inbounds nuw i8, ptr %6, i64 56
  %16 = getelementptr inbounds nuw i8, ptr %6, i64 96
  tail call void @llvm.memset.p0.i64(ptr noundef nonnull align 8 dereferenceable(32) %15, i8 0, i64 32, i1 false)
  tail call void @llvm.memset.p0.i64(ptr noundef nonnull align 8 dereferenceable(24) %16, i8 0, i64 24, i1 false)
  %17 = load ptr, ptr getelementptr inbounds nuw (i8, ptr @pmix_psensor_beat_t_class, i64 40), align 8, !tbaa !58
  %18 = load ptr, ptr %17, align 8, !tbaa !59
  %.not6.i.i = icmp eq ptr %18, null
  br i1 %.not6.i.i, label %pmix_obj_new_tma.exit, label %.lr.ph.i.i

.lr.ph.i.i:                                       ; preds = %11, %.lr.ph.i.i
  %19 = phi ptr [ %21, %.lr.ph.i.i ], [ %18, %11 ]
  %.07.i.i = phi ptr [ %20, %.lr.ph.i.i ], [ %17, %11 ]
  tail call void %19(ptr noundef nonnull %6) #13
  %20 = getelementptr inbounds nuw i8, ptr %.07.i.i, i64 8
  %21 = load ptr, ptr %20, align 8, !tbaa !59
  %.not.i.i = icmp eq ptr %21, null
  br i1 %.not.i.i, label %pmix_obj_new_tma.exit, label %.lr.ph.i.i, !llvm.loop !60

pmix_obj_new_tma.exit:                            ; preds = %.lr.ph.i.i, %10, %11
  %22 = tail call i32 @pthread_mutex_lock(ptr noundef %0) #13
  %23 = icmp eq i32 %22, 35
  br i1 %23, label %24, label %pmix_obj_update.exit

24:                                               ; preds = %pmix_obj_new_tma.exit
  %25 = tail call ptr @__errno_location() #16
  store i32 35, ptr %25, align 4, !tbaa !54
  tail call void @perror(ptr noundef nonnull @.str.13) #17
  tail call void @abort() #18
  unreachable

pmix_obj_update.exit:                             ; preds = %pmix_obj_new_tma.exit
  %26 = getelementptr inbounds nuw i8, ptr %0, i64 48
  %27 = load i32, ptr %26, align 8, !tbaa !57
  %28 = add nsw i32 %27, 1
  store i32 %28, ptr %26, align 8, !tbaa !57
  %29 = tail call i32 @pthread_mutex_unlock(ptr noundef %0) #13
  %30 = getelementptr inbounds nuw i8, ptr %6, i64 248
  store ptr %0, ptr %30, align 8, !tbaa !94
  %31 = getelementptr inbounds nuw i8, ptr %6, i64 120
  %32 = load ptr, ptr getelementptr inbounds nuw (i8, ptr @pmix_psensor_base, i64 272), align 8, !tbaa !85
  %33 = tail call i32 @pmix_event_assign(ptr noundef nonnull %31, ptr noundef %32, i32 noundef -1, i16 noundef signext 4, ptr noundef nonnull @add_beat, ptr noundef %6) #13
  fence release
  tail call void @event_active(ptr noundef nonnull %31, i32 noundef 4, i16 noundef signext 1) #13
  ret void
}